; Function Attrs: nounwind uwtable
define hidden i32 @SDL_GetTouchDeviceType_REAL(i64 noundef %0) local_unnamed_addr #2 {
  %2 = tail call ptr @SDL_GetTouch(i64 noundef %0)
  %.not = icmp eq ptr %2, null
  br i1 %.not, label %6, label %3

3:                                                ; preds = %1
  %4 = getelementptr inbounds nuw i8, ptr %2, i64 8
  %5 = load i32, ptr %4, align 8
  br label %6

6:                                                ; preds = %1, %3
  %7 = phi i32 [ %5, %3 ], [ -1, %1 ]
  ret i32 %7
}